target datalayout = "e-m:e-p270:32:32-p271:32:32-p272:64:64-i64:64-i128:128-f80:128-n8:16:32:64-S128"
target triple = "x86_64-pc-linux-gnu"

%struct._zval_struct = type { %union._zend_value, %union.anon, %union.anon.2 }
%union._zend_value = type { i64 }
%union.anon = type { i32 }
%union.anon.2 = type { i32 }
%struct._zend_refcounted_h = type { i32, %union.anon.3 }
%union.anon.3 = type { i32 }
%struct._zend_object = type { %struct._zend_refcounted_h, i32, ptr, ptr, ptr, [1 x %struct._zval_struct] }
%struct.php_sxe_iterator = type { %struct._zend_object_iterator, ptr }
%struct._zend_object_iterator = type { %struct._zend_object, %struct._zval_struct, ptr, i64 }

; Function Attrs: nounwind uwtable
define internal void @php_sxe_iterator_dtor(ptr noundef %0) #0 {
  %2 = alloca ptr, align 8
  %3 = alloca ptr, align 8
  %4 = alloca ptr, align 8
  store ptr %0, ptr %3, align 8
  %5 = load ptr, ptr %3, align 8
  store ptr %5, ptr %4, align 8
  %6 = load ptr, ptr %4, align 8
  %7 = getelementptr inbounds %struct.php_sxe_iterator, ptr %6, i32 0, i32 0
  %8 = getelementptr inbounds %struct._zend_object_iterator, ptr %7, i32 0, i32 1
  store ptr %8, ptr %2, align 8
  %9 = load ptr, ptr %2, align 8
  %10 = getelementptr inbounds %struct._zval_struct, ptr %9, i32 0, i32 1
  %11 = load i8, ptr %10, align 8
  %12 = zext i8 %11 to i32
  %13 = icmp eq i32 %12, 0
  br i1 %13, label %18, label %14

14:                                               ; preds = %1
  %15 = load ptr, ptr %4, align 8
  %16 = getelementptr inbounds %struct.php_sxe_iterator, ptr %15, i32 0, i32 0
  %17 = getelementptr inbounds %struct._zend_object_iterator, ptr %16, i32 0, i32 1
  call void @zval_ptr_dtor(ptr noundef %17)
  br label %18

18:                                               ; preds = %14, %1
  ret void
}