; Function Attrs: nounwind uwtable
define internal void @php_sxe_iterator_dtor(ptr noundef %0) #1 {
  %2 = getelementptr inbounds i8, ptr %0, i64 64
  %3 = load i8, ptr %2, align 8
  %4 = icmp eq i8 %3, 0
  br i1 %4, label %7, label %5

5:                                                ; preds = %1
  %6 = getelementptr inbounds i8, ptr %0, i64 56
  tail call void @zval_ptr_dtor(ptr noundef nonnull %6) #14
  br label %7

7:                                                ; preds = %5, %1
  ret void
}